target datalayout = "e-m:e-p270:32:32-p271:32:32-p272:64:64-i64:64-i128:128-f80:128-n8:16:32:64-S128"
target triple = "x86_64-unknown-linux-gnu"

%"class.icu_75::BMPSet" = type <{ ptr, [256 x i8], i8, [3 x i8], [64 x i32], [64 x i32], [18 x i32], [4 x i8], ptr, i32, [4 x i8] }>

; Function Attrs: mustprogress nounwind uwtable
define void @_ZN6icu_756BMPSet15overrideIllegalEv(ptr noundef nonnull align 8 dereferenceable(868) %this) #2 align 2 {
entry:
  %this.addr = alloca ptr, align 8
  %bits = alloca i32, align 4
  %mask = alloca i32, align 4
  %i = alloca i32, align 4
  store ptr %this, ptr %this.addr, align 8
  %this1 = load ptr, ptr %this.addr, align 8
  %containsFFFD = getelementptr inbounds %"class.icu_75::BMPSet", ptr %this1, i32 0, i32 2
  %0 = load i8, ptr %containsFFFD, align 8
  %tobool = icmp ne i8 %0, 0
  br i1 %tobool, label %if.then, label %if.else

if.then:                                          ; preds = %entry
  store i32 3, ptr %bits, align 4
  store i32 0, ptr %i, align 4
  br label %for.cond

for.cond:                                         ; preds = %for.inc, %if.then
  %1 = load i32, ptr %i, align 4
  %cmp = icmp slt i32 %1, 64
  br i1 %cmp, label %for.body, label %for.end

for.body:                                         ; preds = %for.cond
  %2 = load i32, ptr %bits, align 4
  %table7FF = getelementptr inbounds %"class.icu_75::BMPSet", ptr %this1, i32 0, i32 4
  %3 = load i32, ptr %i, align 4
  %idxprom = sext i32 %3 to i64
  %arrayidx = getelementptr inbounds [64 x i32], ptr %table7FF, i64 0, i64 %idxprom
  %4 = load i32, ptr %arrayidx, align 4
  %or = or i32 %4, %2
  store i32 %or, ptr %arrayidx, align 4
  br label %for.inc

for.inc:                                          ; preds = %for.body
  %5 = load i32, ptr %i, align 4
  %inc = add nsw i32 %5, 1
  store i32 %inc, ptr %i, align 4
  br label %for.cond, !llvm.loop !12

for.end:                                          ; preds = %for.cond
  store i32 1, ptr %bits, align 4
  store i32 0, ptr %i, align 4
  br label %for.cond2

for.cond2:                                        ; preds = %for.inc8, %for.end
  %6 = load i32, ptr %i, align 4
  %cmp3 = icmp slt i32 %6, 32
  br i1 %cmp3, label %for.body4, label %for.end10

for.body4:                                        ; preds = %for.cond2
  %7 = load i32, ptr %bits, align 4
  %bmpBlockBits = getelementptr inbounds %"class.icu_75::BMPSet", ptr %this1, i32 0, i32 5
  %8 = load i32, ptr %i, align 4
  %idxprom5 = sext i32 %8 to i64
  %arrayidx6 = getelementptr inbounds [64 x i32], ptr %bmpBlockBits, i64 0, i64 %idxprom5
  %9 = load i32, ptr %arrayidx6, align 4
  %or7 = or i32 %9, %7
  store i32 %or7, ptr %arrayidx6, align 4
  br label %for.inc8

for.inc8:                                         ; preds = %for.body4
  %10 = load i32, ptr %i, align 4
  %inc9 = add nsw i32 %10, 1
  store i32 %inc9, ptr %i, align 4
  br label %for.cond2, !llvm.loop !13

for.end10:                                        ; preds = %for.cond2
  store i32 -536879105, ptr %mask, align 4
  store i32 8192, ptr %bits, align 4
  store i32 32, ptr %i, align 4
  br label %for.cond11

for.cond11:                                       ; preds = %for.inc21, %for.end10
  %11 = load i32, ptr %i, align 4
  %cmp12 = icmp slt i32 %11, 64
  br i1 %cmp12, label %for.body13, label %for.end23

for.body13:                                       ; preds = %for.cond11
  %bmpBlockBits14 = getelementptr inbounds %"class.icu_75::BMPSet", ptr %this1, i32 0, i32 5
  %12 = load i32, ptr %i, align 4
  %idxprom15 = sext i32 %12 to i64
  %arrayidx16 = getelementptr inbounds [64 x i32], ptr %bmpBlockBits14, i64 0, i64 %idxprom15
  %13 = load i32, ptr %arrayidx16, align 4
  %14 = load i32, ptr %mask, align 4
  %and = and i32 %13, %14
  %15 = load i32, ptr %bits, align 4
  %or17 = or i32 %and, %15
  %bmpBlockBits18 = getelementptr inbounds %"class.icu_75::BMPSet", ptr %this1, i32 0, i32 5
  %16 = load i32, ptr %i, align 4
  %idxprom19 = sext i32 %16 to i64
  %arrayidx20 = getelementptr inbounds [64 x i32], ptr %bmpBlockBits18, i64 0, i64 %idxprom19
  store i32 %or17, ptr %arrayidx20, align 4
  br label %for.inc21

for.inc21:                                        ; preds = %for.body13
  %17 = load i32, ptr %i, align 4
  %inc22 = add nsw i32 %17, 1
  store i32 %inc22, ptr %i, align 4
  br label %for.cond11, !llvm.loop !14

for.end23:                                        ; preds = %for.cond11
  br label %if.end

if.else:                                          ; preds = %entry
  store i32 -536879105, ptr %mask, align 4
  store i32 32, ptr %i, align 4
  br label %for.cond24

for.cond24:                                       ; preds = %for.inc31, %if.else
  %18 = load i32, ptr %i, align 4
  %cmp25 = icmp slt i32 %18, 64
  br i1 %cmp25, label %for.body26, label %for.end33

for.body26:                                       ; preds = %for.cond24
  %19 = load i32, ptr %mask, align 4
  %bmpBlockBits27 = getelementptr inbounds %"class.icu_75::BMPSet", ptr %this1, i32 0, i32 5
  %20 = load i32, ptr %i, align 4
  %idxprom28 = sext i32 %20 to i64
  %arrayidx29 = getelementptr inbounds [64 x i32], ptr %bmpBlockBits27, i64 0, i64 %idxprom28
  %21 = load i32, ptr %arrayidx29, align 4
  %and30 = and i32 %21, %19
  store i32 %and30, ptr %arrayidx29, align 4
  br label %for.inc31

for.inc31:                                        ; preds = %for.body26
  %22 = load i32, ptr %i, align 4
  %inc32 = add nsw i32 %22, 1
  store i32 %inc32, ptr %i, align 4
  br label %for.cond24, !llvm.loop !15

for.end33:                                        ; preds = %for.cond24
  br label %if.end

if.end:                                           ; preds = %for.end33, %for.end23
  ret void
}