; Function Attrs: mustprogress nofree norecurse nosync nounwind memory(argmem: readwrite) uwtable
define void @_ZN6icu_756BMPSet15overrideIllegalEv(ptr nocapture noundef nonnull align 8 dereferenceable(868) %this) local_unnamed_addr #4 align 2 {
entry:
  %containsFFFD = getelementptr inbounds i8, ptr %this, i64 264
  %0 = load i8, ptr %containsFFFD, align 8
  %tobool.not = icmp eq i8 %0, 0
  br i1 %tobool.not, label %for.cond24.preheader, label %for.cond.preheader

for.cond.preheader:                               ; preds = %entry
  %table7FF = getelementptr inbounds i8, ptr %this, i64 268
  br label %for.body

for.cond24.preheader:                             ; preds = %entry
  %bmpBlockBits27 = getelementptr inbounds i8, ptr %this, i64 524
  br label %for.body26

for.cond2.preheader:                              ; preds = %for.body
  %bmpBlockBits = getelementptr inbounds i8, ptr %this, i64 524
  br label %for.body4

for.body:                                         ; preds = %for.cond.preheader, %for.body
  %indvars.iv = phi i64 [ 0, %for.cond.preheader ], [ %indvars.iv.next, %for.body ]
  %arrayidx = getelementptr inbounds [64 x i32], ptr %table7FF, i64 0, i64 %indvars.iv
  %1 = load i32, ptr %arrayidx, align 4
  %or = or i32 %1, 3
  store i32 %or, ptr %arrayidx, align 4
  %indvars.iv.next = add nuw nsw i64 %indvars.iv, 1
  %exitcond.not = icmp eq i64 %indvars.iv.next, 64
  br i1 %exitcond.not, label %for.cond2.preheader, label %for.body, !llvm.loop !7

for.body4:                                        ; preds = %for.cond2.preheader, %for.body4
  %indvars.iv23 = phi i64 [ 0, %for.cond2.preheader ], [ %indvars.iv.next24, %for.body4 ]
  %arrayidx6 = getelementptr inbounds [64 x i32], ptr %bmpBlockBits, i64 0, i64 %indvars.iv23
  %2 = load i32, ptr %arrayidx6, align 4
  %or7 = or i32 %2, 1
  store i32 %or7, ptr %arrayidx6, align 4
  %indvars.iv.next24 = add nuw nsw i64 %indvars.iv23, 1
  %exitcond26.not = icmp eq i64 %indvars.iv.next24, 32
  br i1 %exitcond26.not, label %for.body13, label %for.body4, !llvm.loop !8

for.body13:                                       ; preds = %for.body4, %for.body13
  %indvars.iv27 = phi i64 [ %indvars.iv.next28, %for.body13 ], [ 32, %for.body4 ]
  %arrayidx16 = getelementptr inbounds [64 x i32], ptr %bmpBlockBits, i64 0, i64 %indvars.iv27
  %3 = load i32, ptr %arrayidx16, align 4
  %and = and i32 %3, -536879105
  %or17 = or disjoint i32 %and, 8192
  store i32 %or17, ptr %arrayidx16, align 4
  %indvars.iv.next28 = add nuw nsw i64 %indvars.iv27, 1
  %exitcond30.not = icmp eq i64 %indvars.iv.next28, 64
  br i1 %exitcond30.not, label %if.end, label %for.body13, !llvm.loop !9

for.body26:                                       ; preds = %for.cond24.preheader, %for.body26
  %indvars.iv31 = phi i64 [ 32, %for.cond24.preheader ], [ %indvars.iv.next32, %for.body26 ]
  %arrayidx29 = getelementptr inbounds [64 x i32], ptr %bmpBlockBits27, i64 0, i64 %indvars.iv31
  %4 = load i32, ptr %arrayidx29, align 4
  %and30 = and i32 %4, -536879105
  store i32 %and30, ptr %arrayidx29, align 4
  %indvars.iv.next32 = add nuw nsw i64 %indvars.iv31, 1
  %exitcond34.not = icmp eq i64 %indvars.iv.next32, 64
  br i1 %exitcond34.not, label %if.end, label %for.body26, !llvm.loop !10

if.end:                                           ; preds = %for.body13, %for.body26
  ret void
}